target datalayout = "e-m:e-p270:32:32-p271:32:32-p272:64:64-i64:64-i128:128-f80:128-n8:16:32:64-S128"
target triple = "x86_64-pc-linux-gnu"

%"class.std::__cxx11::basic_string" = type { %"struct.std::__cxx11::basic_string<char>::_Alloc_hider", i64, %union.anon }
%"struct.std::__cxx11::basic_string<char>::_Alloc_hider" = type { ptr }
%union.anon = type { i64, [8 x i8] }

@__dso_handle = external hidden global i8
@_ZZN7rocksdb12_GLOBAL__N_123ComparatorWithU64TsImplINS0_29ReverseBytewiseComparatorImplEE10kClassNameEvE10class_nameB5cxx11 = internal global %"class.std::__cxx11::basic_string" zeroinitializer, align 8
@_ZGVZN7rocksdb12_GLOBAL__N_123ComparatorWithU64TsImplINS0_29ReverseBytewiseComparatorImplEE10kClassNameEvE10class_nameB5cxx11 = internal global i64 0, align 8

; Function Attrs: mustprogress nounwind uwtable
define available_externally noundef ptr @_ZNKSt7__cxx1112basic_stringIcSt11char_traitsIcESaIcEE7_M_dataEv(ptr noundef nonnull align 8 dereferenceable(32) %0) #3 align 2 {
  %2 = alloca ptr, align 8
  store ptr %0, ptr %2, align 8, !tbaa !31
  %3 = load ptr, ptr %2, align 8
  %4 = getelementptr inbounds nuw %"class.std::__cxx11::basic_string", ptr %3, i32 0, i32 0
  %5 = getelementptr inbounds nuw %"struct.std::__cxx11::basic_string<char>::_Alloc_hider", ptr %4, i32 0, i32 0
  %6 = load ptr, ptr %5, align 8, !tbaa !135
  ret ptr %6
}

; Function Attrs: mustprogress nounwind uwtable
define available_externally noundef ptr @_ZNKSt7__cxx1112basic_stringIcSt11char_traitsIcESaIcEE5c_strEv(ptr noundef nonnull align 8 dereferenceable(32) %0) #3 align 2 {
  %2 = alloca ptr, align 8
  store ptr %0, ptr %2, align 8, !tbaa !31
  %3 = load ptr, ptr %2, align 8
  %4 = call noundef ptr @_ZNKSt7__cxx1112basic_stringIcSt11char_traitsIcESaIcEE7_M_dataEv(ptr noundef nonnull align 8 dereferenceable(32) %3)
  ret ptr %4
}

; Function Attrs: mustprogress uwtable
define internal noundef ptr @_ZN7rocksdb12_GLOBAL__N_123ComparatorWithU64TsImplINS0_29ReverseBytewiseComparatorImplEE10kClassNameEv() #4 align 2 personality ptr @__gxx_personality_v0 {
  %1 = alloca ptr, align 8
  %2 = alloca i32, align 4
  %3 = load atomic i8, ptr @_ZGVZN7rocksdb12_GLOBAL__N_123ComparatorWithU64TsImplINS0_29ReverseBytewiseComparatorImplEE10kClassNameEvE10class_nameB5cxx11 acquire, align 8
  %4 = icmp eq i8 %3, 0
  br i1 %4, label %5, label %11, !prof !18

5:                                                ; preds = %0
  %6 = call i32 @__cxa_guard_acquire(ptr @_ZGVZN7rocksdb12_GLOBAL__N_123ComparatorWithU64TsImplINS0_29ReverseBytewiseComparatorImplEE10kClassNameEvE10class_nameB5cxx11) #5
  %7 = icmp ne i32 %6, 0
  br i1 %7, label %8, label %11

8:                                                ; preds = %5
  invoke void @_ZN7rocksdb12_GLOBAL__N_123ComparatorWithU64TsImplINS0_29ReverseBytewiseComparatorImplEE18kClassNameInternalB5cxx11Ev(ptr dead_on_unwind writable sret(%"class.std::__cxx11::basic_string") align 8 @_ZZN7rocksdb12_GLOBAL__N_123ComparatorWithU64TsImplINS0_29ReverseBytewiseComparatorImplEE10kClassNameEvE10class_nameB5cxx11)
          to label %9 unwind label %13

9:                                                ; preds = %8
  %10 = call i32 @__cxa_atexit(ptr @_ZNSt7__cxx1112basic_stringIcSt11char_traitsIcESaIcEED2Ev, ptr @_ZZN7rocksdb12_GLOBAL__N_123ComparatorWithU64TsImplINS0_29ReverseBytewiseComparatorImplEE10kClassNameEvE10class_nameB5cxx11, ptr @__dso_handle) #5
  call void @__cxa_guard_release(ptr @_ZGVZN7rocksdb12_GLOBAL__N_123ComparatorWithU64TsImplINS0_29ReverseBytewiseComparatorImplEE10kClassNameEvE10class_nameB5cxx11) #5
  br label %11

11:                                               ; preds = %9, %5, %0
  %12 = call noundef ptr @_ZNKSt7__cxx1112basic_stringIcSt11char_traitsIcESaIcEE5c_strEv(ptr noundef nonnull align 8 dereferenceable(32) @_ZZN7rocksdb12_GLOBAL__N_123ComparatorWithU64TsImplINS0_29ReverseBytewiseComparatorImplEE10kClassNameEvE10class_nameB5cxx11) #5
  ret ptr %12

13:                                               ; preds = %8
  %14 = landingpad { ptr, i32 }
          cleanup
  %15 = extractvalue { ptr, i32 } %14, 0
  store ptr %15, ptr %1, align 8
  %16 = extractvalue { ptr, i32 } %14, 1
  store i32 %16, ptr %2, align 4
  call void @__cxa_guard_abort(ptr @_ZGVZN7rocksdb12_GLOBAL__N_123ComparatorWithU64TsImplINS0_29ReverseBytewiseComparatorImplEE10kClassNameEvE10class_nameB5cxx11) #5
  br label %17

17:                                               ; preds = %13
  %18 = load ptr, ptr %1, align 8
  %19 = load i32, ptr %2, align 4
  %20 = insertvalue { ptr, i32 } poison, ptr %18, 0
  %21 = insertvalue { ptr, i32 } %20, i32 %19, 1
  resume { ptr, i32 } %21
}

; Function Attrs: mustprogress uwtable
define internal noundef ptr @_ZNK7rocksdb12_GLOBAL__N_123ComparatorWithU64TsImplINS0_29ReverseBytewiseComparatorImplEE4NameEv(ptr noundef nonnull align 8 dereferenceable(96) %0) unnamed_addr #4 align 2 {
  %2 = alloca ptr, align 8
  store ptr %0, ptr %2, align 8, !tbaa !27
  %3 = call noundef ptr @_ZN7rocksdb12_GLOBAL__N_123ComparatorWithU64TsImplINS0_29ReverseBytewiseComparatorImplEE10kClassNameEv()
  ret ptr %3
}